; ModuleID = '54/1608.cpp'
source_filename = "54/1608.cpp"
target datalayout = "e-m:e-p270:32:32-p271:32:32-p272:64:64-i64:64-f80:128-n8:16:32:64-S128"
target triple = "x86_64-pc-linux-gnu"

%"class.std::ios_base::Init" = type { i8 }
%"class.std::basic_istream" = type { i32 (...)**, i64, %"class.std::basic_ios" }
%"class.std::basic_ios" = type { %"class.std::ios_base", %"class.std::basic_ostream"*, i8, i8, %"class.std::basic_streambuf"*, %"class.std::ctype"*, %"class.std::num_put"*, %"class.std::num_get"* }
%"class.std::ios_base" = type { i32 (...)**, i64, i64, i32, i32, i32, %"struct.std::ios_base::_Callback_list"*, %"struct.std::ios_base::_Words", [8 x %"struct.std::ios_base::_Words"], i32, %"struct.std::ios_base::_Words"*, %"class.std::locale" }
%"struct.std::ios_base::_Callback_list" = type { %"struct.std::ios_base::_Callback_list"*, void (i32, %"class.std::ios_base"*, i32)*, i32, i32 }
%"struct.std::ios_base::_Words" = type { i8*, i64 }
%"class.std::locale" = type { %"class.std::locale::_Impl"* }
%"class.std::locale::_Impl" = type { i32, %"class.std::locale::facet"**, i64, %"class.std::locale::facet"**, i8** }
%"class.std::locale::facet" = type <{ i32 (...)**, i32, [4 x i8] }>
%"class.std::basic_ostream" = type { i32 (...)**, %"class.std::basic_ios" }
%"class.std::basic_streambuf" = type { i32 (...)**, i8*, i8*, i8*, i8*, i8*, i8*, %"class.std::locale" }
%"class.std::ctype" = type <{ %"class.std::locale::facet.base", [4 x i8], %struct.__locale_struct*, i8, [7 x i8], i32*, i32*, i16*, i8, [256 x i8], [256 x i8], i8, [6 x i8] }>
%"class.std::locale::facet.base" = type <{ i32 (...)**, i32 }>
%struct.__locale_struct = type { [13 x %struct.__locale_data*], i16*, i32*, i32*, [13 x i8*] }
%struct.__locale_data = type opaque
%"class.std::num_put" = type { %"class.std::locale::facet.base", [4 x i8] }
%"class.std::num_get" = type { %"class.std::locale::facet.base", [4 x i8] }

$_ZSt3powIdiEN9__gnu_cxx11__promote_2IT_T0_NS0_9__promoteIS2_Xsr3std12__is_integerIS2_EE7__valueEE6__typeENS4_IS3_Xsr3std12__is_integerIS3_EE7__valueEE6__typeEE6__typeES2_S3_ = comdat any

@_ZStL8__ioinit = internal global %"class.std::ios_base::Init" zeroinitializer, align 1
@__dso_handle = external hidden global i8
@_ZSt3cin = external dso_local global %"class.std::basic_istream", align 8
@_ZSt4cout = external dso_local global %"class.std::basic_ostream", align 8
@llvm.global_ctors = appending global [1 x { i32, void ()*, i8* }] [{ i32, void ()*, i8* } { i32 65535, void ()* @_GLOBAL__sub_I_1608.cpp, i8* null }]

; Function Attrs: noinline uwtable
define internal void @__cxx_global_var_init() #0 section ".text.startup" {
  call void @_ZNSt8ios_base4InitC1Ev(%"class.std::ios_base::Init"* @_ZStL8__ioinit)
  %1 = call i32 @__cxa_atexit(void (i8*)* bitcast (void (%"class.std::ios_base::Init"*)* @_ZNSt8ios_base4InitD1Ev to void (i8*)*), i8* getelementptr inbounds (%"class.std::ios_base::Init", %"class.std::ios_base::Init"* @_ZStL8__ioinit, i32 0, i32 0), i8* @__dso_handle) #3
  ret void
}

declare dso_local void @_ZNSt8ios_base4InitC1Ev(%"class.std::ios_base::Init"*) unnamed_addr #1

; Function Attrs: nounwind
declare dso_local void @_ZNSt8ios_base4InitD1Ev(%"class.std::ios_base::Init"*) unnamed_addr #2

; Function Attrs: nounwind
declare dso_local i32 @__cxa_atexit(void (i8*)*, i8*, i8*) #3

; Function Attrs: noinline norecurse uwtable
define dso_local i32 @main() #4 {
  %1 = alloca i32, align 4
  %2 = alloca i32, align 4
  %3 = alloca i32, align 4
  %4 = alloca i32, align 4
  %5 = alloca i32, align 4
  %6 = alloca i32, align 4
  store i32 0, i32* %1, align 4
  %7 = call dereferenceable(280) %"class.std::basic_istream"* @_ZNSirsERi(%"class.std::basic_istream"* @_ZSt3cin, i32* dereferenceable(4) %2)
  %8 = call dereferenceable(280) %"class.std::basic_istream"* @_ZNSirsERi(%"class.std::basic_istream"* %7, i32* dereferenceable(4) %3)
  %9 = load i32, i32* %2, align 4
  %10 = icmp eq i32 %9, 2
  br i1 %10, label %11, label %14

11:                                               ; preds = %0
  %12 = call dereferenceable(272) %"class.std::basic_ostream"* @_ZNSolsEi(%"class.std::basic_ostream"* @_ZSt4cout, i32 7)
  %13 = call dereferenceable(272) %"class.std::basic_ostream"* @_ZNSolsEPFRSoS_E(%"class.std::basic_ostream"* %12, %"class.std::basic_ostream"* (%"class.std::basic_ostream"*)* @_ZSt4endlIcSt11char_traitsIcEERSt13basic_ostreamIT_T0_ES6_)
  store i32 0, i32* %1, align 4
  br label %66

14:                                               ; preds = %0
  %15 = load i32, i32* %2, align 4
  %16 = sitofp i32 %15 to double
  %17 = fsub double %16, 1.000000e+00
  %18 = load i32, i32* %2, align 4
  %19 = sub nsw i32 %18, 1
  %20 = call double @_ZSt3powIdiEN9__gnu_cxx11__promote_2IT_T0_NS0_9__promoteIS2_Xsr3std12__is_integerIS2_EE7__valueEE6__typeENS4_IS3_Xsr3std12__is_integerIS3_EE7__valueEE6__typeEE6__typeES2_S3_(double %17, i32 %19)
  %21 = load i32, i32* %3, align 4
  %22 = sitofp i32 %21 to double
  %23 = fsub double %20, %22
  %24 = fptosi double %23 to i32
  store i32 %24, i32* %4, align 4
  br label %25

25:                                               ; preds = %14, %62
  %26 = load i32, i32* %4, align 4
  %27 = load i32, i32* %2, align 4
  %28 = mul nsw i32 %26, %27
  %29 = load i32, i32* %3, align 4
  %30 = add nsw i32 %28, %29
  store i32 %30, i32* %5, align 4
  store i32 1, i32* %6, align 4
  br label %31

31:                                               ; preds = %52, %25
  %32 = load i32, i32* %6, align 4
  %33 = load i32, i32* %2, align 4
  %34 = icmp slt i32 %32, %33
  br i1 %34, label %35, label %55

35:                                               ; preds = %31
  %36 = load i32, i32* %5, align 4
  %37 = load i32, i32* %2, align 4
  %38 = sub nsw i32 %37, 1
  %39 = srem i32 %36, %38
  %40 = icmp eq i32 %39, 0
  br i1 %40, label %41, label %50

41:                                               ; preds = %35
  %42 = load i32, i32* %5, align 4
  %43 = load i32, i32* %2, align 4
  %44 = sub nsw i32 %43, 1
  %45 = sdiv i32 %42, %44
  %46 = load i32, i32* %2, align 4
  %47 = mul nsw i32 %45, %46
  %48 = load i32, i32* %3, align 4
  %49 = add nsw i32 %47, %48
  store i32 %49, i32* %5, align 4
  br label %51

50:                                               ; preds = %35
  store i32 -1, i32* %5, align 4
  br label %55

51:                                               ; preds = %41
  br label %52

52:                                               ; preds = %51
  %53 = load i32, i32* %6, align 4
  %54 = add nsw i32 %53, 1
  store i32 %54, i32* %6, align 4
  br label %31

55:                                               ; preds = %50, %31
  %56 = load i32, i32* %5, align 4
  %57 = icmp ne i32 %56, -1
  br i1 %57, label %58, label %62

58:                                               ; preds = %55
  %59 = load i32, i32* %5, align 4
  %60 = call dereferenceable(272) %"class.std::basic_ostream"* @_ZNSolsEi(%"class.std::basic_ostream"* @_ZSt4cout, i32 %59)
  %61 = call dereferenceable(272) %"class.std::basic_ostream"* @_ZNSolsEPFRSoS_E(%"class.std::basic_ostream"* %60, %"class.std::basic_ostream"* (%"class.std::basic_ostream"*)* @_ZSt4endlIcSt11char_traitsIcEERSt13basic_ostreamIT_T0_ES6_)
  br label %65

62:                                               ; preds = %55
  %63 = load i32, i32* %4, align 4
  %64 = add nsw i32 %63, 1
  store i32 %64, i32* %4, align 4
  br label %25

65:                                               ; preds = %58
  store i32 0, i32* %1, align 4
  br label %66

66:                                               ; preds = %65, %11
  %67 = load i32, i32* %1, align 4
  ret i32 %67
}

declare dso_local dereferenceable(280) %"class.std::basic_istream"* @_ZNSirsERi(%"class.std::basic_istream"*, i32* dereferenceable(4)) #1

declare dso_local dereferenceable(272) %"class.std::basic_ostream"* @_ZNSolsEi(%"class.std::basic_ostream"*, i32) #1

declare dso_local dereferenceable(272) %"class.std::basic_ostream"* @_ZNSolsEPFRSoS_E(%"class.std::basic_ostream"*, %"class.std::basic_ostream"* (%"class.std::basic_ostream"*)*) #1

declare dso_local dereferenceable(272) %"class.std::basic_ostream"* @_ZSt4endlIcSt11char_traitsIcEERSt13basic_ostreamIT_T0_ES6_(%"class.std::basic_ostream"* dereferenceable(272)) #1

; Function Attrs: noinline nounwind uwtable
define linkonce_odr dso_local double @_ZSt3powIdiEN9__gnu_cxx11__promote_2IT_T0_NS0_9__promoteIS2_Xsr3std12__is_integerIS2_EE7__valueEE6__typeENS4_IS3_Xsr3std12__is_integerIS3_EE7__valueEE6__typeEE6__typeES2_S3_(double %0, i32 %1) #5 comdat {
  %3 = alloca double, align 8
  %4 = alloca i32, align 4
  store double %0, double* %3, align 8
  store i32 %1, i32* %4, align 4
  %5 = load double, double* %3, align 8
  %6 = load i32, i32* %4, align 4
  %7 = sitofp i32 %6 to double
  %8 = call double @pow(double %5, double %7) #3
  ret double %8
}

; Function Attrs: nounwind
declare dso_local double @pow(double, double) #2

; Function Attrs: noinline uwtable
define internal void @_GLOBAL__sub_I_1608.cpp() #0 section ".text.startup" {
  call void @__cxx_global_var_init()
  ret void
}


!llvm.module.flags = !{!0}
!llvm.ident = !{!1}

!0 = !{i32 1, !"wchar_size", i32 4}
!1 = !{!"clang version 10.0.0-4ubuntu1 "}
